target datalayout = "e-m:e-p270:32:32-p271:32:32-p272:64:64-i64:64-i128:128-f80:128-n8:16:32:64-S128"
target triple = "x86_64-pc-linux-gnu"

@AgDataRecName = global ptr @.str, align 8

; Function Attrs: nounwind uwtable
define ptr @agattrrec(ptr noundef %0) #0 {
  %2 = alloca ptr, align 8
  store ptr %0, ptr %2, align 8, !tbaa !3
  %3 = load ptr, ptr %2, align 8, !tbaa !3
  %4 = load ptr, ptr @AgDataRecName, align 8, !tbaa !31
  %5 = call ptr @aggetrec(ptr noundef %3, ptr noundef %4, i32 noundef 0)
  ret ptr %5
}

; Function Attrs: nounwind uwtable
define void @agnodeattr_delete(ptr noundef %0) #0 {
  %2 = alloca ptr, align 8
  %3 = alloca ptr, align 8
  store ptr %0, ptr %2, align 8, !tbaa !24
  call void @llvm.lifetime.start.p0(i64 8, ptr %3) #11
  %4 = load ptr, ptr %2, align 8, !tbaa !24
  %5 = call ptr @agattrrec(ptr noundef %4)
  store ptr %5, ptr %3, align 8, !tbaa !32
  %6 = icmp ne ptr %5, null
  br i1 %6, label %7, label %13

7:                                                ; preds = %1
  %8 = load ptr, ptr %2, align 8, !tbaa !24
  %9 = load ptr, ptr %3, align 8, !tbaa !32
  call void @freeattr(ptr noundef %8, ptr noundef %9)
  %10 = load ptr, ptr %2, align 8, !tbaa !24
  %11 = load ptr, ptr @AgDataRecName, align 8, !tbaa !31
  %12 = call i32 @agdelrec(ptr noundef %10, ptr noundef %11)
  br label %13

13:                                               ; preds = %7, %1
  call void @llvm.lifetime.end.p0(i64 8, ptr %3) #11
  ret void
}